target datalayout = "e-m:e-p270:32:32-p271:32:32-p272:64:64-i64:64-i128:128-f80:128-n8:16:32:64-S128"
target triple = "x86_64-unknown-linux-gnu"

%"class.icu_75::UVector" = type { %"class.icu_75::UObject", i32, i32, ptr, ptr, ptr }
%"class.icu_75::UObject" = type { ptr }
%union.UElement = type { ptr }

; Function Attrs: mustprogress uwtable
define void @_ZN6icu_757UVector17removeAllElementsEv(ptr noundef nonnull align 8 dereferenceable(40) %this) #1 align 2 {
entry:
  %this.addr = alloca ptr, align 8
  %i = alloca i32, align 4
  store ptr %this, ptr %this.addr, align 8
  %this1 = load ptr, ptr %this.addr, align 8
  %deleter = getelementptr inbounds %"class.icu_75::UVector", ptr %this1, i32 0, i32 4
  %0 = load ptr, ptr %deleter, align 8
  %cmp = icmp ne ptr %0, null
  br i1 %cmp, label %if.then, label %if.end9

if.then:                                          ; preds = %entry
  store i32 0, ptr %i, align 4
  br label %for.cond

for.cond:                                         ; preds = %for.inc, %if.then
  %1 = load i32, ptr %i, align 4
  %count = getelementptr inbounds %"class.icu_75::UVector", ptr %this1, i32 0, i32 1
  %2 = load i32, ptr %count, align 8
  %cmp2 = icmp slt i32 %1, %2
  br i1 %cmp2, label %for.body, label %for.end

for.body:                                         ; preds = %for.cond
  %elements = getelementptr inbounds %"class.icu_75::UVector", ptr %this1, i32 0, i32 3
  %3 = load ptr, ptr %elements, align 8
  %4 = load i32, ptr %i, align 4
  %idxprom = sext i32 %4 to i64
  %arrayidx = getelementptr inbounds %union.UElement, ptr %3, i64 %idxprom
  %5 = load ptr, ptr %arrayidx, align 8
  %cmp3 = icmp ne ptr %5, null
  br i1 %cmp3, label %if.then4, label %if.end

if.then4:                                         ; preds = %for.body
  %deleter5 = getelementptr inbounds %"class.icu_75::UVector", ptr %this1, i32 0, i32 4
  %6 = load ptr, ptr %deleter5, align 8
  %elements6 = getelementptr inbounds %"class.icu_75::UVector", ptr %this1, i32 0, i32 3
  %7 = load ptr, ptr %elements6, align 8
  %8 = load i32, ptr %i, align 4
  %idxprom7 = sext i32 %8 to i64
  %arrayidx8 = getelementptr inbounds %union.UElement, ptr %7, i64 %idxprom7
  %9 = load ptr, ptr %arrayidx8, align 8
  call void %6(ptr noundef %9)
  br label %if.end

if.end:                                           ; preds = %if.then4, %for.body
  br label %for.inc

for.inc:                                          ; preds = %if.end
  %10 = load i32, ptr %i, align 4
  %inc = add nsw i32 %10, 1
  store i32 %inc, ptr %i, align 4
  br label %for.cond, !llvm.loop !4

for.end:                                          ; preds = %for.cond
  br label %if.end9

if.end9:                                          ; preds = %for.end, %entry
  %count10 = getelementptr inbounds %"class.icu_75::UVector", ptr %this1, i32 0, i32 1
  store i32 0, ptr %count10, align 8
  ret void
}