; Function Attrs: mustprogress uwtable
define void @_ZN6icu_757UVector17removeAllElementsEv(ptr nocapture noundef nonnull align 8 dereferenceable(40) %this) local_unnamed_addr #1 align 2 {
entry:
  %deleter = getelementptr inbounds i8, ptr %this, i64 24
  %0 = load ptr, ptr %deleter, align 8
  %cmp.not = icmp eq ptr %0, null
  br i1 %cmp.not, label %if.end9, label %for.cond.preheader

for.cond.preheader:                               ; preds = %entry
  %count = getelementptr inbounds i8, ptr %this, i64 8
  %1 = load i32, ptr %count, align 8
  %cmp24 = icmp sgt i32 %1, 0
  br i1 %cmp24, label %for.body.lr.ph, label %if.end9

for.body.lr.ph:                                   ; preds = %for.cond.preheader
  %elements = getelementptr inbounds i8, ptr %this, i64 16
  br label %for.body

for.body:                                         ; preds = %for.body.lr.ph, %for.inc
  %2 = phi i32 [ %1, %for.body.lr.ph ], [ %6, %for.inc ]
  %indvars.iv = phi i64 [ 0, %for.body.lr.ph ], [ %indvars.iv.next, %for.inc ]
  %3 = load ptr, ptr %elements, align 8
  %arrayidx = getelementptr inbounds %union.UElement, ptr %3, i64 %indvars.iv
  %4 = load ptr, ptr %arrayidx, align 8
  %cmp3.not = icmp eq ptr %4, null
  br i1 %cmp3.not, label %for.inc, label %if.then4

if.then4:                                         ; preds = %for.body
  %5 = load ptr, ptr %deleter, align 8
  tail call void %5(ptr noundef nonnull %4)
  %.pre = load i32, ptr %count, align 8
  br label %for.inc

for.inc:                                          ; preds = %for.body, %if.then4
  %6 = phi i32 [ %2, %for.body ], [ %.pre, %if.then4 ]
  %indvars.iv.next = add nuw nsw i64 %indvars.iv, 1
  %7 = sext i32 %6 to i64
  %cmp2 = icmp slt i64 %indvars.iv.next, %7
  br i1 %cmp2, label %for.body, label %if.end9, !llvm.loop !4

if.end9:                                          ; preds = %for.inc, %for.cond.preheader, %entry
  %count10 = getelementptr inbounds i8, ptr %this, i64 8
  store i32 0, ptr %count10, align 8
  ret void
}